; Function Attrs: nounwind sspstrong uwtable
define dso_local void @tcg_gen_orc_i32(ptr noundef %0, ptr noundef %1, ptr noundef %2) local_unnamed_addr #2 {
  %4 = tail call ptr @tcg_temp_ebb_new_i32() #6
  %5 = tail call align 8 ptr @llvm.threadlocal.address.p0(ptr align 8 @tcg_ctx)
  %6 = load ptr, ptr %5, align 8
  %7 = ptrtoint ptr %4 to i64
  %8 = getelementptr inbounds nuw i8, ptr %6, i64 %7
  %9 = ptrtoint ptr %8 to i64
  %10 = ptrtoint ptr %2 to i64
  %11 = getelementptr inbounds nuw i8, ptr %6, i64 %10
  %12 = ptrtoint ptr %11 to i64
  %13 = tail call ptr @tcg_gen_op2(i32 noundef 53, i32 noundef 0, i64 noundef %9, i64 noundef %12)
  %14 = load ptr, ptr %5, align 8
  %15 = ptrtoint ptr %0 to i64
  %16 = getelementptr inbounds nuw i8, ptr %14, i64 %15
  %17 = ptrtoint ptr %16 to i64
  %18 = ptrtoint ptr %1 to i64
  %19 = getelementptr inbounds nuw i8, ptr %14, i64 %18
  %20 = ptrtoint ptr %19 to i64
  %21 = getelementptr inbounds nuw i8, ptr %14, i64 %7
  %22 = ptrtoint ptr %21 to i64
  %23 = tail call ptr @tcg_gen_op3(i32 noundef 27, i32 noundef 0, i64 noundef %17, i64 noundef %20, i64 noundef %22)
  tail call void @tcg_temp_free_i32(ptr noundef %4) #6
  ret void
}